; Function Attrs: mustprogress uwtable
define void @_ZN6duckdb18StructColumnReader4SkipEm(ptr noundef nonnull readonly align 8 captures(none) dereferenceable(568) %0, i64 noundef %1) unnamed_addr #3 align 2 {
  %3 = getelementptr inbounds nuw i8, ptr %0, i64 544
  %4 = load ptr, ptr %3, align 8, !tbaa !405
  %5 = getelementptr inbounds nuw i8, ptr %0, i64 552
  %6 = load ptr, ptr %5, align 8, !tbaa !405
  %.not9 = icmp eq ptr %4, %6
  br i1 %.not9, label %._crit_edge, label %.lr.ph

._crit_edge:                                      ; preds = %13, %2
  ret void

.lr.ph:                                           ; preds = %2, %13
  %.sroa.05.010 = phi ptr [ %14, %13 ], [ %4, %2 ]
  %7 = load ptr, ptr %.sroa.05.010, align 8, !tbaa !6
  %.not8 = icmp eq ptr %7, null
  br i1 %.not8, label %13, label %8

8:                                                ; preds = %.lr.ph
  %9 = tail call noundef ptr @_ZNK6duckdb10unique_ptrINS_12ColumnReaderESt14default_deleteIS1_ELb1EEptEv(ptr noundef nonnull align 8 dereferenceable(8) %.sroa.05.010)
  %10 = load ptr, ptr %9, align 8, !tbaa !3
  %11 = getelementptr inbounds nuw i8, ptr %10, i64 48
  %12 = load ptr, ptr %11, align 8
  tail call void %12(ptr noundef nonnull align 8 dereferenceable(544) %9, i64 noundef %1)
  br label %13

13:                                               ; preds = %.lr.ph, %8
  %14 = getelementptr inbounds nuw i8, ptr %.sroa.05.010, i64 8
  %.not = icmp eq ptr %14, %6
  br i1 %.not, label %._crit_edge, label %.lr.ph
}